target datalayout = "e-m:e-p270:32:32-p271:32:32-p272:64:64-i64:64-i128:128-f80:128-n8:16:32:64-S128"
target triple = "x86_64-pc-linux-gnu"

%struct.ExecParallelEstimateContext = type { ptr, i32 }
%struct.PlanState = type { i32, ptr, ptr, ptr, ptr, ptr, ptr, ptr, ptr, ptr, ptr, ptr, ptr, ptr, ptr, ptr, ptr, ptr, i8, ptr, ptr, ptr, ptr, ptr, i8, i8, i8, i8, i8, i8, i8, i8 }
%struct.Plan = type { i32, i32, double, double, double, i32, i8, i8, i8, i32, ptr, ptr, ptr, ptr, ptr, ptr, ptr }
%struct.Node = type { i32 }

; Function Attrs: nounwind uwtable
define internal zeroext i1 @ExecParallelEstimate(ptr noundef %0, ptr noundef %1) #0 {
  %3 = alloca i1, align 1
  %4 = alloca ptr, align 8
  %5 = alloca ptr, align 8
  store ptr %0, ptr %4, align 8
  store ptr %1, ptr %5, align 8
  %6 = load ptr, ptr %4, align 8
  %7 = icmp eq ptr %6, null
  br i1 %7, label %8, label %9

8:                                                ; preds = %2
  store i1 false, ptr %3, align 1
  br label %151

9:                                                ; preds = %2
  %10 = load ptr, ptr %5, align 8
  %11 = getelementptr inbounds nuw %struct.ExecParallelEstimateContext, ptr %10, i32 0, i32 1
  %12 = load i32, ptr %11, align 8
  %13 = add i32 %12, 1
  store i32 %13, ptr %11, align 8
  %14 = load ptr, ptr %4, align 8
  %15 = getelementptr inbounds nuw %struct.Node, ptr %14, i32 0, i32 0
  %16 = load i32, ptr %15, align 4
  switch i32 %16, label %146 [
    i32 402, label %17
    i32 404, label %30
    i32 405, label %43
    i32 417, label %56
    i32 396, label %69
    i32 418, label %82
    i32 407, label %95
    i32 422, label %108
    i32 433, label %121
    i32 425, label %126
    i32 426, label %131
    i32 428, label %136
    i32 424, label %141
  ]

17:                                               ; preds = %9
  %18 = load ptr, ptr %4, align 8
  %19 = getelementptr inbounds nuw %struct.PlanState, ptr %18, i32 0, i32 1
  %20 = load ptr, ptr %19, align 8
  %21 = getelementptr inbounds nuw %struct.Plan, ptr %20, i32 0, i32 6
  %22 = load i8, ptr %21, align 4, !range !7, !noundef !8
  %23 = trunc i8 %22 to i1
  br i1 %23, label %24, label %29

24:                                               ; preds = %17
  %25 = load ptr, ptr %4, align 8
  %26 = load ptr, ptr %5, align 8
  %27 = getelementptr inbounds nuw %struct.ExecParallelEstimateContext, ptr %26, i32 0, i32 0
  %28 = load ptr, ptr %27, align 8
  call void @ExecSeqScanEstimate(ptr noundef %25, ptr noundef %28)
  br label %29

29:                                               ; preds = %24, %17
  br label %147

30:                                               ; preds = %9
  %31 = load ptr, ptr %4, align 8
  %32 = getelementptr inbounds nuw %struct.PlanState, ptr %31, i32 0, i32 1
  %33 = load ptr, ptr %32, align 8
  %34 = getelementptr inbounds nuw %struct.Plan, ptr %33, i32 0, i32 6
  %35 = load i8, ptr %34, align 4, !range !7, !noundef !8
  %36 = trunc i8 %35 to i1
  br i1 %36, label %37, label %42

37:                                               ; preds = %30
  %38 = load ptr, ptr %4, align 8
  %39 = load ptr, ptr %5, align 8
  %40 = getelementptr inbounds nuw %struct.ExecParallelEstimateContext, ptr %39, i32 0, i32 0
  %41 = load ptr, ptr %40, align 8
  call void @ExecIndexScanEstimate(ptr noundef %38, ptr noundef %41)
  br label %42

42:                                               ; preds = %37, %30
  br label %147

43:                                               ; preds = %9
  %44 = load ptr, ptr %4, align 8
  %45 = getelementptr inbounds nuw %struct.PlanState, ptr %44, i32 0, i32 1
  %46 = load ptr, ptr %45, align 8
  %47 = getelementptr inbounds nuw %struct.Plan, ptr %46, i32 0, i32 6
  %48 = load i8, ptr %47, align 4, !range !7, !noundef !8
  %49 = trunc i8 %48 to i1
  br i1 %49, label %50, label %55

50:                                               ; preds = %43
  %51 = load ptr, ptr %4, align 8
  %52 = load ptr, ptr %5, align 8
  %53 = getelementptr inbounds nuw %struct.ExecParallelEstimateContext, ptr %52, i32 0, i32 0
  %54 = load ptr, ptr %53, align 8
  call void @ExecIndexOnlyScanEstimate(ptr noundef %51, ptr noundef %54)
  br label %55

55:                                               ; preds = %50, %43
  br label %147

56:                                               ; preds = %9
  %57 = load ptr, ptr %4, align 8
  %58 = getelementptr inbounds nuw %struct.PlanState, ptr %57, i32 0, i32 1
  %59 = load ptr, ptr %58, align 8
  %60 = getelementptr inbounds nuw %struct.Plan, ptr %59, i32 0, i32 6
  %61 = load i8, ptr %60, align 4, !range !7, !noundef !8
  %62 = trunc i8 %61 to i1
  br i1 %62, label %63, label %68

63:                                               ; preds = %56
  %64 = load ptr, ptr %4, align 8
  %65 = load ptr, ptr %5, align 8
  %66 = getelementptr inbounds nuw %struct.ExecParallelEstimateContext, ptr %65, i32 0, i32 0
  %67 = load ptr, ptr %66, align 8
  call void @ExecForeignScanEstimate(ptr noundef %64, ptr noundef %67)
  br label %68

68:                                               ; preds = %63, %56
  br label %147

69:                                               ; preds = %9
  %70 = load ptr, ptr %4, align 8
  %71 = getelementptr inbounds nuw %struct.PlanState, ptr %70, i32 0, i32 1
  %72 = load ptr, ptr %71, align 8
  %73 = getelementptr inbounds nuw %struct.Plan, ptr %72, i32 0, i32 6
  %74 = load i8, ptr %73, align 4, !range !7, !noundef !8
  %75 = trunc i8 %74 to i1
  br i1 %75, label %76, label %81

76:                                               ; preds = %69
  %77 = load ptr, ptr %4, align 8
  %78 = load ptr, ptr %5, align 8
  %79 = getelementptr inbounds nuw %struct.ExecParallelEstimateContext, ptr %78, i32 0, i32 0
  %80 = load ptr, ptr %79, align 8
  call void @ExecAppendEstimate(ptr noundef %77, ptr noundef %80)
  br label %81

81:                                               ; preds = %76, %69
  br label %147

82:                                               ; preds = %9
  %83 = load ptr, ptr %4, align 8
  %84 = getelementptr inbounds nuw %struct.PlanState, ptr %83, i32 0, i32 1
  %85 = load ptr, ptr %84, align 8
  %86 = getelementptr inbounds nuw %struct.Plan, ptr %85, i32 0, i32 6
  %87 = load i8, ptr %86, align 4, !range !7, !noundef !8
  %88 = trunc i8 %87 to i1
  br i1 %88, label %89, label %94

89:                                               ; preds = %82
  %90 = load ptr, ptr %4, align 8
  %91 = load ptr, ptr %5, align 8
  %92 = getelementptr inbounds nuw %struct.ExecParallelEstimateContext, ptr %91, i32 0, i32 0
  %93 = load ptr, ptr %92, align 8
  call void @ExecCustomScanEstimate(ptr noundef %90, ptr noundef %93)
  br label %94

94:                                               ; preds = %89, %82
  br label %147

95:                                               ; preds = %9
  %96 = load ptr, ptr %4, align 8
  %97 = getelementptr inbounds nuw %struct.PlanState, ptr %96, i32 0, i32 1
  %98 = load ptr, ptr %97, align 8
  %99 = getelementptr inbounds nuw %struct.Plan, ptr %98, i32 0, i32 6
  %100 = load i8, ptr %99, align 4, !range !7, !noundef !8
  %101 = trunc i8 %100 to i1
  br i1 %101, label %102, label %107

102:                                              ; preds = %95
  %103 = load ptr, ptr %4, align 8
  %104 = load ptr, ptr %5, align 8
  %105 = getelementptr inbounds nuw %struct.ExecParallelEstimateContext, ptr %104, i32 0, i32 0
  %106 = load ptr, ptr %105, align 8
  call void @ExecBitmapHeapEstimate(ptr noundef %103, ptr noundef %106)
  br label %107

107:                                              ; preds = %102, %95
  br label %147

108:                                              ; preds = %9
  %109 = load ptr, ptr %4, align 8
  %110 = getelementptr inbounds nuw %struct.PlanState, ptr %109, i32 0, i32 1
  %111 = load ptr, ptr %110, align 8
  %112 = getelementptr inbounds nuw %struct.Plan, ptr %111, i32 0, i32 6
  %113 = load i8, ptr %112, align 4, !range !7, !noundef !8
  %114 = trunc i8 %113 to i1
  br i1 %114, label %115, label %120

115:                                              ; preds = %108
  %116 = load ptr, ptr %4, align 8
  %117 = load ptr, ptr %5, align 8
  %118 = getelementptr inbounds nuw %struct.ExecParallelEstimateContext, ptr %117, i32 0, i32 0
  %119 = load ptr, ptr %118, align 8
  call void @ExecHashJoinEstimate(ptr noundef %116, ptr noundef %119)
  br label %120

120:                                              ; preds = %115, %108
  br label %147

121:                                              ; preds = %9
  %122 = load ptr, ptr %4, align 8
  %123 = load ptr, ptr %5, align 8
  %124 = getelementptr inbounds nuw %struct.ExecParallelEstimateContext, ptr %123, i32 0, i32 0
  %125 = load ptr, ptr %124, align 8
  call void @ExecHashEstimate(ptr noundef %122, ptr noundef %125)
  br label %147

126:                                              ; preds = %9
  %127 = load ptr, ptr %4, align 8
  %128 = load ptr, ptr %5, align 8
  %129 = getelementptr inbounds nuw %struct.ExecParallelEstimateContext, ptr %128, i32 0, i32 0
  %130 = load ptr, ptr %129, align 8
  call void @ExecSortEstimate(ptr noundef %127, ptr noundef %130)
  br label %147

131:                                              ; preds = %9
  %132 = load ptr, ptr %4, align 8
  %133 = load ptr, ptr %5, align 8
  %134 = getelementptr inbounds nuw %struct.ExecParallelEstimateContext, ptr %133, i32 0, i32 0
  %135 = load ptr, ptr %134, align 8
  call void @ExecIncrementalSortEstimate(ptr noundef %132, ptr noundef %135)
  br label %147

136:                                              ; preds = %9
  %137 = load ptr, ptr %4, align 8
  %138 = load ptr, ptr %5, align 8
  %139 = getelementptr inbounds nuw %struct.ExecParallelEstimateContext, ptr %138, i32 0, i32 0
  %140 = load ptr, ptr %139, align 8
  call void @ExecAggEstimate(ptr noundef %137, ptr noundef %140)
  br label %147

141:                                              ; preds = %9
  %142 = load ptr, ptr %4, align 8
  %143 = load ptr, ptr %5, align 8
  %144 = getelementptr inbounds nuw %struct.ExecParallelEstimateContext, ptr %143, i32 0, i32 0
  %145 = load ptr, ptr %144, align 8
  call void @ExecMemoizeEstimate(ptr noundef %142, ptr noundef %145)
  br label %147

146:                                              ; preds = %9
  br label %147

147:                                              ; preds = %146, %141, %136, %131, %126, %121, %120, %107, %94, %81, %68, %55, %42, %29
  %148 = load ptr, ptr %4, align 8
  %149 = load ptr, ptr %5, align 8
  %150 = call zeroext i1 @planstate_tree_walker_impl(ptr noundef %148, ptr noundef @ExecParallelEstimate, ptr noundef %149)
  store i1 %150, ptr %3, align 1
  br label %151

151:                                              ; preds = %147, %8
  %152 = load i1, ptr %3, align 1
  ret i1 %152
}