; Function Attrs: nounwind uwtable
define internal zeroext i1 @ExecParallelEstimate(ptr noundef %0, ptr noundef %1) #0 {
  %3 = icmp eq ptr %0, null
  br i1 %3, label %85, label %4

4:                                                ; preds = %2
  %5 = getelementptr inbounds nuw i8, ptr %1, i64 8
  %6 = load i32, ptr %5, align 8
  %7 = add i32 %6, 1
  store i32 %7, ptr %5, align 8
  %8 = load i32, ptr %0, align 4
  switch i32 %8, label %83 [
    i32 402, label %9
    i32 404, label %17
    i32 405, label %25
    i32 417, label %33
    i32 396, label %41
    i32 418, label %49
    i32 407, label %57
    i32 422, label %65
    i32 433, label %73
    i32 425, label %75
    i32 426, label %77
    i32 428, label %79
    i32 424, label %81
  ]

9:                                                ; preds = %4
  %10 = getelementptr inbounds nuw i8, ptr %0, i64 8
  %11 = load ptr, ptr %10, align 8
  %12 = getelementptr inbounds nuw i8, ptr %11, i64 36
  %13 = load i8, ptr %12, align 4, !range !4, !noundef !5
  %14 = trunc nuw i8 %13 to i1
  br i1 %14, label %15, label %83

15:                                               ; preds = %9
  %16 = load ptr, ptr %1, align 8
  tail call void @ExecSeqScanEstimate(ptr noundef nonnull %0, ptr noundef %16) #9
  br label %83

17:                                               ; preds = %4
  %18 = getelementptr inbounds nuw i8, ptr %0, i64 8
  %19 = load ptr, ptr %18, align 8
  %20 = getelementptr inbounds nuw i8, ptr %19, i64 36
  %21 = load i8, ptr %20, align 4, !range !4, !noundef !5
  %22 = trunc nuw i8 %21 to i1
  br i1 %22, label %23, label %83

23:                                               ; preds = %17
  %24 = load ptr, ptr %1, align 8
  tail call void @ExecIndexScanEstimate(ptr noundef nonnull %0, ptr noundef %24) #9
  br label %83

25:                                               ; preds = %4
  %26 = getelementptr inbounds nuw i8, ptr %0, i64 8
  %27 = load ptr, ptr %26, align 8
  %28 = getelementptr inbounds nuw i8, ptr %27, i64 36
  %29 = load i8, ptr %28, align 4, !range !4, !noundef !5
  %30 = trunc nuw i8 %29 to i1
  br i1 %30, label %31, label %83

31:                                               ; preds = %25
  %32 = load ptr, ptr %1, align 8
  tail call void @ExecIndexOnlyScanEstimate(ptr noundef nonnull %0, ptr noundef %32) #9
  br label %83

33:                                               ; preds = %4
  %34 = getelementptr inbounds nuw i8, ptr %0, i64 8
  %35 = load ptr, ptr %34, align 8
  %36 = getelementptr inbounds nuw i8, ptr %35, i64 36
  %37 = load i8, ptr %36, align 4, !range !4, !noundef !5
  %38 = trunc nuw i8 %37 to i1
  br i1 %38, label %39, label %83

39:                                               ; preds = %33
  %40 = load ptr, ptr %1, align 8
  tail call void @ExecForeignScanEstimate(ptr noundef nonnull %0, ptr noundef %40) #9
  br label %83

41:                                               ; preds = %4
  %42 = getelementptr inbounds nuw i8, ptr %0, i64 8
  %43 = load ptr, ptr %42, align 8
  %44 = getelementptr inbounds nuw i8, ptr %43, i64 36
  %45 = load i8, ptr %44, align 4, !range !4, !noundef !5
  %46 = trunc nuw i8 %45 to i1
  br i1 %46, label %47, label %83

47:                                               ; preds = %41
  %48 = load ptr, ptr %1, align 8
  tail call void @ExecAppendEstimate(ptr noundef nonnull %0, ptr noundef %48) #9
  br label %83

49:                                               ; preds = %4
  %50 = getelementptr inbounds nuw i8, ptr %0, i64 8
  %51 = load ptr, ptr %50, align 8
  %52 = getelementptr inbounds nuw i8, ptr %51, i64 36
  %53 = load i8, ptr %52, align 4, !range !4, !noundef !5
  %54 = trunc nuw i8 %53 to i1
  br i1 %54, label %55, label %83

55:                                               ; preds = %49
  %56 = load ptr, ptr %1, align 8
  tail call void @ExecCustomScanEstimate(ptr noundef nonnull %0, ptr noundef %56) #9
  br label %83

57:                                               ; preds = %4
  %58 = getelementptr inbounds nuw i8, ptr %0, i64 8
  %59 = load ptr, ptr %58, align 8
  %60 = getelementptr inbounds nuw i8, ptr %59, i64 36
  %61 = load i8, ptr %60, align 4, !range !4, !noundef !5
  %62 = trunc nuw i8 %61 to i1
  br i1 %62, label %63, label %83

63:                                               ; preds = %57
  %64 = load ptr, ptr %1, align 8
  tail call void @ExecBitmapHeapEstimate(ptr noundef nonnull %0, ptr noundef %64) #9
  br label %83

65:                                               ; preds = %4
  %66 = getelementptr inbounds nuw i8, ptr %0, i64 8
  %67 = load ptr, ptr %66, align 8
  %68 = getelementptr inbounds nuw i8, ptr %67, i64 36
  %69 = load i8, ptr %68, align 4, !range !4, !noundef !5
  %70 = trunc nuw i8 %69 to i1
  br i1 %70, label %71, label %83

71:                                               ; preds = %65
  %72 = load ptr, ptr %1, align 8
  tail call void @ExecHashJoinEstimate(ptr noundef nonnull %0, ptr noundef %72) #9
  br label %83

73:                                               ; preds = %4
  %74 = load ptr, ptr %1, align 8
  tail call void @ExecHashEstimate(ptr noundef nonnull %0, ptr noundef %74) #9
  br label %83

75:                                               ; preds = %4
  %76 = load ptr, ptr %1, align 8
  tail call void @ExecSortEstimate(ptr noundef nonnull %0, ptr noundef %76) #9
  br label %83

77:                                               ; preds = %4
  %78 = load ptr, ptr %1, align 8
  tail call void @ExecIncrementalSortEstimate(ptr noundef nonnull %0, ptr noundef %78) #9
  br label %83

79:                                               ; preds = %4
  %80 = load ptr, ptr %1, align 8
  tail call void @ExecAggEstimate(ptr noundef nonnull %0, ptr noundef %80) #9
  br label %83

81:                                               ; preds = %4
  %82 = load ptr, ptr %1, align 8
  tail call void @ExecMemoizeEstimate(ptr noundef nonnull %0, ptr noundef %82) #9
  br label %83

83:                                               ; preds = %4, %65, %71, %57, %63, %49, %55, %41, %47, %33, %39, %25, %31, %17, %23, %9, %15, %81, %79, %77, %75, %73
  %84 = tail call zeroext i1 @planstate_tree_walker_impl(ptr noundef nonnull %0, ptr noundef nonnull @ExecParallelEstimate, ptr noundef nonnull %1) #9
  br label %85

85:                                               ; preds = %2, %83
  %.0 = phi i1 [ %84, %83 ], [ false, %2 ]
  ret i1 %.0
}